target datalayout = "e-m:e-p270:32:32-p271:32:32-p272:64:64-i64:64-i128:128-f80:128-n8:16:32:64-S128"
target triple = "x86_64-pc-linux-gnu"

%"class.std::__cxx11::basic_string" = type { %"struct.std::__cxx11::basic_string<char>::_Alloc_hider", i64, %union.anon }
%"struct.std::__cxx11::basic_string<char>::_Alloc_hider" = type { ptr }
%union.anon = type { i64, [8 x i8] }
%class.cmLinkItem = type { %"class.std::__cxx11::basic_string", ptr, ptr, %"class.std::__cxx11::basic_string", i8, %class.cmListFileBacktrace }
%class.cmListFileBacktrace = type { %class.cmConstStack }
%class.cmConstStack = type { %"class.std::shared_ptr" }
%"class.std::shared_ptr" = type { %"class.std::__shared_ptr" }
%"class.std::__shared_ptr" = type { ptr, %"class.std::__shared_count" }
%"class.std::__shared_count" = type { ptr }

; Function Attrs: mustprogress nounwind uwtable
define available_externally noundef i32 @_ZNSt7__cxx1112basic_stringIcSt11char_traitsIcESaIcEE10_S_compareEmm(i64 noundef %0, i64 noundef %1) #6 align 2 {
  %3 = alloca i32, align 4
  %4 = alloca i64, align 8
  %5 = alloca i64, align 8
  %6 = alloca i64, align 8
  %7 = alloca i32, align 4
  store i64 %0, ptr %4, align 8, !tbaa !17
  store i64 %1, ptr %5, align 8, !tbaa !17
  call void @llvm.lifetime.start.p0(i64 8, ptr %6) #3
  %8 = load i64, ptr %4, align 8, !tbaa !17
  %9 = load i64, ptr %5, align 8, !tbaa !17
  %10 = sub i64 %8, %9
  store i64 %10, ptr %6, align 8, !tbaa !17
  %11 = load i64, ptr %6, align 8, !tbaa !17
  %12 = icmp sgt i64 %11, 2147483647
  br i1 %12, label %13, label %14

13:                                               ; preds = %2
  store i32 2147483647, ptr %3, align 4
  store i32 1, ptr %7, align 4
  br label %21

14:                                               ; preds = %2
  %15 = load i64, ptr %6, align 8, !tbaa !17
  %16 = icmp slt i64 %15, -2147483648
  br i1 %16, label %17, label %18

17:                                               ; preds = %14
  store i32 -2147483648, ptr %3, align 4
  store i32 1, ptr %7, align 4
  br label %21

18:                                               ; preds = %14
  %19 = load i64, ptr %6, align 8, !tbaa !17
  %20 = trunc i64 %19 to i32
  store i32 %20, ptr %3, align 4
  store i32 1, ptr %7, align 4
  br label %21

21:                                               ; preds = %18, %17, %13
  call void @llvm.lifetime.end.p0(i64 8, ptr %6) #3
  %22 = load i32, ptr %3, align 4
  ret i32 %22
}

; Function Attrs: mustprogress nounwind uwtable
define available_externally noundef ptr @_ZNKSt7__cxx1112basic_stringIcSt11char_traitsIcESaIcEE7_M_dataEv(ptr noundef nonnull align 8 dereferenceable(32) %0) #6 align 2 {
  %2 = alloca ptr, align 8
  store ptr %0, ptr %2, align 8, !tbaa !20
  %3 = load ptr, ptr %2, align 8
  %4 = getelementptr inbounds nuw %"class.std::__cxx11::basic_string", ptr %3, i32 0, i32 0
  %5 = getelementptr inbounds nuw %"struct.std::__cxx11::basic_string<char>::_Alloc_hider", ptr %4, i32 0, i32 0
  %6 = load ptr, ptr %5, align 8, !tbaa !97
  ret ptr %6
}

; Function Attrs: inlinehint mustprogress nounwind uwtable
define linkonce_odr dso_local noundef nonnull align 8 dereferenceable(8) ptr @_ZSt3minImERKT_S2_S2_(ptr noundef nonnull align 8 dereferenceable(8) %0, ptr noundef nonnull align 8 dereferenceable(8) %1) #7 comdat {
  %3 = alloca ptr, align 8
  %4 = alloca ptr, align 8
  %5 = alloca ptr, align 8
  store ptr %0, ptr %4, align 8, !tbaa !78
  store ptr %1, ptr %5, align 8, !tbaa !78
  %6 = load ptr, ptr %5, align 8, !tbaa !78
  %7 = load i64, ptr %6, align 8, !tbaa !17
  %8 = load ptr, ptr %4, align 8, !tbaa !78
  %9 = load i64, ptr %8, align 8, !tbaa !17
  %10 = icmp ult i64 %7, %9
  br i1 %10, label %11, label %13

11:                                               ; preds = %2
  %12 = load ptr, ptr %5, align 8, !tbaa !78
  store ptr %12, ptr %3, align 8
  br label %15

13:                                               ; preds = %2
  %14 = load ptr, ptr %4, align 8, !tbaa !78
  store ptr %14, ptr %3, align 8
  br label %15

15:                                               ; preds = %13, %11
  %16 = load ptr, ptr %3, align 8
  ret ptr %16
}

; Function Attrs: mustprogress nounwind uwtable
define linkonce_odr dso_local noundef i32 @_ZNSt11char_traitsIcE7compareEPKcS2_m(ptr noundef %0, ptr noundef %1, i64 noundef %2) #6 comdat align 2 {
  %4 = alloca i32, align 4
  %5 = alloca ptr, align 8
  %6 = alloca ptr, align 8
  %7 = alloca i64, align 8
  store ptr %0, ptr %5, align 8, !tbaa !22
  store ptr %1, ptr %6, align 8, !tbaa !22
  store i64 %2, ptr %7, align 8, !tbaa !17
  %8 = load i64, ptr %7, align 8, !tbaa !17
  %9 = icmp eq i64 %8, 0
  br i1 %9, label %10, label %11

10:                                               ; preds = %3
  store i32 0, ptr %4, align 4
  br label %16

11:                                               ; preds = %3
  %12 = load ptr, ptr %5, align 8, !tbaa !22
  %13 = load ptr, ptr %6, align 8, !tbaa !22
  %14 = load i64, ptr %7, align 8, !tbaa !17
  %15 = call i32 @memcmp(ptr noundef %12, ptr noundef %13, i64 noundef %14) #3
  store i32 %15, ptr %4, align 4
  br label %16

16:                                               ; preds = %11, %10
  %17 = load i32, ptr %4, align 4
  ret i32 %17
}

; Function Attrs: mustprogress nounwind uwtable
define available_externally noundef ptr @_ZNKSt7__cxx1112basic_stringIcSt11char_traitsIcESaIcEE4dataEv(ptr noundef nonnull align 8 dereferenceable(32) %0) #6 align 2 {
  %2 = alloca ptr, align 8
  store ptr %0, ptr %2, align 8, !tbaa !20
  %3 = load ptr, ptr %2, align 8
  %4 = call noundef ptr @_ZNKSt7__cxx1112basic_stringIcSt11char_traitsIcESaIcEE7_M_dataEv(ptr noundef nonnull align 8 dereferenceable(32) %3)
  ret ptr %4
}

; Function Attrs: mustprogress nounwind uwtable
define available_externally noundef i64 @_ZNKSt7__cxx1112basic_stringIcSt11char_traitsIcESaIcEE4sizeEv(ptr noundef nonnull align 8 dereferenceable(32) %0) #6 align 2 {
  %2 = alloca ptr, align 8
  store ptr %0, ptr %2, align 8, !tbaa !20
  %3 = load ptr, ptr %2, align 8
  %4 = getelementptr inbounds nuw %"class.std::__cxx11::basic_string", ptr %3, i32 0, i32 1
  %5 = load i64, ptr %4, align 8, !tbaa !98
  ret i64 %5
}

; Function Attrs: noinline noreturn nounwind uwtable
define linkonce_odr hidden void @__clang_call_terminate(ptr noundef %0) #11 comdat {
  %2 = call ptr @__cxa_begin_catch(ptr %0) #3
  call void @_ZSt9terminatev() #15
  unreachable
}

; Function Attrs: mustprogress nounwind uwtable
define available_externally noundef i32 @_ZNKSt7__cxx1112basic_stringIcSt11char_traitsIcESaIcEE7compareERKS4_(ptr noundef nonnull align 8 dereferenceable(32) %0, ptr noundef nonnull align 8 dereferenceable(32) %1) #6 align 2 {
  %3 = alloca ptr, align 8
  %4 = alloca ptr, align 8
  %5 = alloca i64, align 8
  %6 = alloca i64, align 8
  %7 = alloca i64, align 8
  %8 = alloca i32, align 4
  store ptr %0, ptr %3, align 8, !tbaa !20
  store ptr %1, ptr %4, align 8, !tbaa !20
  %9 = load ptr, ptr %3, align 8
  call void @llvm.lifetime.start.p0(i64 8, ptr %5) #3
  %10 = call noundef i64 @_ZNKSt7__cxx1112basic_stringIcSt11char_traitsIcESaIcEE4sizeEv(ptr noundef nonnull align 8 dereferenceable(32) %9) #3
  store i64 %10, ptr %5, align 8, !tbaa !17
  call void @llvm.lifetime.start.p0(i64 8, ptr %6) #3
  %11 = load ptr, ptr %4, align 8, !tbaa !20
  %12 = call noundef i64 @_ZNKSt7__cxx1112basic_stringIcSt11char_traitsIcESaIcEE4sizeEv(ptr noundef nonnull align 8 dereferenceable(32) %11) #3
  store i64 %12, ptr %6, align 8, !tbaa !17
  call void @llvm.lifetime.start.p0(i64 8, ptr %7) #3
  %13 = call noundef nonnull align 8 dereferenceable(8) ptr @_ZSt3minImERKT_S2_S2_(ptr noundef nonnull align 8 dereferenceable(8) %5, ptr noundef nonnull align 8 dereferenceable(8) %6)
  %14 = load i64, ptr %13, align 8, !tbaa !17
  store i64 %14, ptr %7, align 8, !tbaa !17
  call void @llvm.lifetime.start.p0(i64 4, ptr %8) #3
  %15 = call noundef ptr @_ZNKSt7__cxx1112basic_stringIcSt11char_traitsIcESaIcEE7_M_dataEv(ptr noundef nonnull align 8 dereferenceable(32) %9)
  %16 = load ptr, ptr %4, align 8, !tbaa !20
  %17 = call noundef ptr @_ZNKSt7__cxx1112basic_stringIcSt11char_traitsIcESaIcEE4dataEv(ptr noundef nonnull align 8 dereferenceable(32) %16) #3
  %18 = load i64, ptr %7, align 8, !tbaa !17
  %19 = call noundef i32 @_ZNSt11char_traitsIcE7compareEPKcS2_m(ptr noundef %15, ptr noundef %17, i64 noundef %18)
  store i32 %19, ptr %8, align 4, !tbaa !76
  %20 = load i32, ptr %8, align 4, !tbaa !76
  %21 = icmp ne i32 %20, 0
  br i1 %21, label %26, label %22

22:                                               ; preds = %2
  %23 = load i64, ptr %5, align 8, !tbaa !17
  %24 = load i64, ptr %6, align 8, !tbaa !17
  %25 = call noundef i32 @_ZNSt7__cxx1112basic_stringIcSt11char_traitsIcESaIcEE10_S_compareEmm(i64 noundef %23, i64 noundef %24) #3
  store i32 %25, ptr %8, align 4, !tbaa !76
  br label %26

26:                                               ; preds = %22, %2
  %27 = load i32, ptr %8, align 4, !tbaa !76
  call void @llvm.lifetime.end.p0(i64 4, ptr %8) #3
  call void @llvm.lifetime.end.p0(i64 8, ptr %7) #3
  call void @llvm.lifetime.end.p0(i64 8, ptr %6) #3
  call void @llvm.lifetime.end.p0(i64 8, ptr %5) #3
  ret i32 %27
}

; Function Attrs: inlinehint mustprogress nounwind uwtable
define linkonce_odr dso_local noundef zeroext i1 @_ZSteqIcEN9__gnu_cxx11__enable_ifIXsr9__is_charIT_EE7__valueEbE6__typeERKNSt7__cxx1112basic_stringIS2_St11char_traitsIS2_ESaIS2_EEESC_(ptr noundef nonnull align 8 dereferenceable(32) %0, ptr noundef nonnull align 8 dereferenceable(32) %1) #7 comdat {
  %3 = alloca ptr, align 8
  %4 = alloca ptr, align 8
  store ptr %0, ptr %3, align 8, !tbaa !20
  store ptr %1, ptr %4, align 8, !tbaa !20
  %5 = load ptr, ptr %3, align 8, !tbaa !20
  %6 = call noundef i64 @_ZNKSt7__cxx1112basic_stringIcSt11char_traitsIcESaIcEE4sizeEv(ptr noundef nonnull align 8 dereferenceable(32) %5) #3
  %7 = load ptr, ptr %4, align 8, !tbaa !20
  %8 = call noundef i64 @_ZNKSt7__cxx1112basic_stringIcSt11char_traitsIcESaIcEE4sizeEv(ptr noundef nonnull align 8 dereferenceable(32) %7) #3
  %9 = icmp eq i64 %6, %8
  br i1 %9, label %10, label %20

10:                                               ; preds = %2
  %11 = load ptr, ptr %3, align 8, !tbaa !20
  %12 = call noundef ptr @_ZNKSt7__cxx1112basic_stringIcSt11char_traitsIcESaIcEE4dataEv(ptr noundef nonnull align 8 dereferenceable(32) %11) #3
  %13 = load ptr, ptr %4, align 8, !tbaa !20
  %14 = call noundef ptr @_ZNKSt7__cxx1112basic_stringIcSt11char_traitsIcESaIcEE4dataEv(ptr noundef nonnull align 8 dereferenceable(32) %13) #3
  %15 = load ptr, ptr %3, align 8, !tbaa !20
  %16 = call noundef i64 @_ZNKSt7__cxx1112basic_stringIcSt11char_traitsIcESaIcEE4sizeEv(ptr noundef nonnull align 8 dereferenceable(32) %15) #3
  %17 = call noundef i32 @_ZNSt11char_traitsIcE7compareEPKcS2_m(ptr noundef %12, ptr noundef %14, i64 noundef %16)
  %18 = icmp ne i32 %17, 0
  %19 = xor i1 %18, true
  br label %20

20:                                               ; preds = %10, %2
  %21 = phi i1 [ false, %2 ], [ %19, %10 ]
  ret i1 %21
}

; Function Attrs: inlinehint mustprogress nounwind uwtable
define linkonce_odr dso_local noundef zeroext i1 @_ZStltIcSt11char_traitsIcESaIcEEbRKNSt7__cxx1112basic_stringIT_T0_T1_EESA_(ptr noundef nonnull align 8 dereferenceable(32) %0, ptr noundef nonnull align 8 dereferenceable(32) %1) #7 comdat personality ptr @__gxx_personality_v0 {
  %3 = alloca ptr, align 8
  %4 = alloca ptr, align 8
  store ptr %0, ptr %3, align 8, !tbaa !20
  store ptr %1, ptr %4, align 8, !tbaa !20
  %5 = load ptr, ptr %3, align 8, !tbaa !20
  %6 = load ptr, ptr %4, align 8, !tbaa !20
  %7 = invoke noundef i32 @_ZNKSt7__cxx1112basic_stringIcSt11char_traitsIcESaIcEE7compareERKS4_(ptr noundef nonnull align 8 dereferenceable(32) %5, ptr noundef nonnull align 8 dereferenceable(32) %6)
          to label %8 unwind label %10

8:                                                ; preds = %2
  %9 = icmp slt i32 %7, 0
  ret i1 %9

10:                                               ; preds = %2
  %11 = landingpad { ptr, i32 }
          catch ptr null
  %12 = extractvalue { ptr, i32 } %11, 0
  call void @__clang_call_terminate(ptr %12) #15
  unreachable
}

; Function Attrs: inlinehint mustprogress nounwind uwtable
define linkonce_odr dso_local noundef zeroext i1 @_ZStneIcSt11char_traitsIcESaIcEEbRKNSt7__cxx1112basic_stringIT_T0_T1_EESA_(ptr noundef nonnull align 8 dereferenceable(32) %0, ptr noundef nonnull align 8 dereferenceable(32) %1) #7 comdat {
  %3 = alloca ptr, align 8
  %4 = alloca ptr, align 8
  store ptr %0, ptr %3, align 8, !tbaa !20
  store ptr %1, ptr %4, align 8, !tbaa !20
  %5 = load ptr, ptr %3, align 8, !tbaa !20
  %6 = load ptr, ptr %4, align 8, !tbaa !20
  %7 = call noundef zeroext i1 @_ZSteqIcEN9__gnu_cxx11__enable_ifIXsr9__is_charIT_EE7__valueEbE6__typeERKNSt7__cxx1112basic_stringIS2_St11char_traitsIS2_ESaIS2_EEESC_(ptr noundef nonnull align 8 dereferenceable(32) %5, ptr noundef nonnull align 8 dereferenceable(32) %6) #3
  %8 = xor i1 %7, true
  ret i1 %8
}

; Function Attrs: mustprogress nounwind uwtable
define dso_local noundef zeroext i1 @_ZltRK10cmLinkItemS1_(ptr noundef nonnull align 8 dereferenceable(104) %0, ptr noundef nonnull align 8 dereferenceable(104) %1) #6 {
  %3 = alloca i1, align 1
  %4 = alloca ptr, align 8
  %5 = alloca ptr, align 8
  store ptr %0, ptr %4, align 8, !tbaa !26
  store ptr %1, ptr %5, align 8, !tbaa !26
  %6 = load ptr, ptr %4, align 8, !tbaa !26
  %7 = getelementptr inbounds nuw %class.cmLinkItem, ptr %6, i32 0, i32 1
  %8 = load ptr, ptr %7, align 8, !tbaa !32
  %9 = icmp ne ptr %8, null
  br i1 %9, label %10, label %43

10:                                               ; preds = %2
  %11 = load ptr, ptr %5, align 8, !tbaa !26
  %12 = getelementptr inbounds nuw %class.cmLinkItem, ptr %11, i32 0, i32 1
  %13 = load ptr, ptr %12, align 8, !tbaa !32
  %14 = icmp ne ptr %13, null
  br i1 %14, label %15, label %43

15:                                               ; preds = %10
  %16 = load ptr, ptr %4, align 8, !tbaa !26
  %17 = getelementptr inbounds nuw %class.cmLinkItem, ptr %16, i32 0, i32 1
  %18 = load ptr, ptr %17, align 8, !tbaa !32
  %19 = load ptr, ptr %5, align 8, !tbaa !26
  %20 = getelementptr inbounds nuw %class.cmLinkItem, ptr %19, i32 0, i32 1
  %21 = load ptr, ptr %20, align 8, !tbaa !32
  %22 = icmp ne ptr %18, %21
  br i1 %22, label %23, label %31

23:                                               ; preds = %15
  %24 = load ptr, ptr %4, align 8, !tbaa !26
  %25 = getelementptr inbounds nuw %class.cmLinkItem, ptr %24, i32 0, i32 1
  %26 = load ptr, ptr %25, align 8, !tbaa !32
  %27 = load ptr, ptr %5, align 8, !tbaa !26
  %28 = getelementptr inbounds nuw %class.cmLinkItem, ptr %27, i32 0, i32 1
  %29 = load ptr, ptr %28, align 8, !tbaa !32
  %30 = icmp ult ptr %26, %29
  store i1 %30, ptr %3, align 1
  br label %79

31:                                               ; preds = %15
  %32 = load ptr, ptr %4, align 8, !tbaa !26
  %33 = getelementptr inbounds nuw %class.cmLinkItem, ptr %32, i32 0, i32 4
  %34 = load i8, ptr %33, align 8, !tbaa !48, !range !46, !noundef !47
  %35 = trunc i8 %34 to i1
  %36 = zext i1 %35 to i32
  %37 = load ptr, ptr %5, align 8, !tbaa !26
  %38 = getelementptr inbounds nuw %class.cmLinkItem, ptr %37, i32 0, i32 4
  %39 = load i8, ptr %38, align 8, !tbaa !48, !range !46, !noundef !47
  %40 = trunc i8 %39 to i1
  %41 = zext i1 %40 to i32
  %42 = icmp slt i32 %36, %41
  store i1 %42, ptr %3, align 1
  br label %79

43:                                               ; preds = %10, %2
  %44 = load ptr, ptr %4, align 8, !tbaa !26
  %45 = getelementptr inbounds nuw %class.cmLinkItem, ptr %44, i32 0, i32 1
  %46 = load ptr, ptr %45, align 8, !tbaa !32
  %47 = icmp ne ptr %46, null
  br i1 %47, label %48, label %49

48:                                               ; preds = %43
  store i1 true, ptr %3, align 1
  br label %79

49:                                               ; preds = %43
  %50 = load ptr, ptr %5, align 8, !tbaa !26
  %51 = getelementptr inbounds nuw %class.cmLinkItem, ptr %50, i32 0, i32 1
  %52 = load ptr, ptr %51, align 8, !tbaa !32
  %53 = icmp ne ptr %52, null
  br i1 %53, label %54, label %55

54:                                               ; preds = %49
  store i1 false, ptr %3, align 1
  br label %79

55:                                               ; preds = %49
  %56 = load ptr, ptr %4, align 8, !tbaa !26
  %57 = getelementptr inbounds nuw %class.cmLinkItem, ptr %56, i32 0, i32 0
  %58 = load ptr, ptr %5, align 8, !tbaa !26
  %59 = getelementptr inbounds nuw %class.cmLinkItem, ptr %58, i32 0, i32 0
  %60 = call noundef zeroext i1 @_ZStneIcSt11char_traitsIcESaIcEEbRKNSt7__cxx1112basic_stringIT_T0_T1_EESA_(ptr noundef nonnull align 8 dereferenceable(32) %57, ptr noundef nonnull align 8 dereferenceable(32) %59) #3
  br i1 %60, label %61, label %67

61:                                               ; preds = %55
  %62 = load ptr, ptr %4, align 8, !tbaa !26
  %63 = getelementptr inbounds nuw %class.cmLinkItem, ptr %62, i32 0, i32 0
  %64 = load ptr, ptr %5, align 8, !tbaa !26
  %65 = getelementptr inbounds nuw %class.cmLinkItem, ptr %64, i32 0, i32 0
  %66 = call noundef zeroext i1 @_ZStltIcSt11char_traitsIcESaIcEEbRKNSt7__cxx1112basic_stringIT_T0_T1_EESA_(ptr noundef nonnull align 8 dereferenceable(32) %63, ptr noundef nonnull align 8 dereferenceable(32) %65) #3
  store i1 %66, ptr %3, align 1
  br label %79

67:                                               ; preds = %55
  %68 = load ptr, ptr %4, align 8, !tbaa !26
  %69 = getelementptr inbounds nuw %class.cmLinkItem, ptr %68, i32 0, i32 4
  %70 = load i8, ptr %69, align 8, !tbaa !48, !range !46, !noundef !47
  %71 = trunc i8 %70 to i1
  %72 = zext i1 %71 to i32
  %73 = load ptr, ptr %5, align 8, !tbaa !26
  %74 = getelementptr inbounds nuw %class.cmLinkItem, ptr %73, i32 0, i32 4
  %75 = load i8, ptr %74, align 8, !tbaa !48, !range !46, !noundef !47
  %76 = trunc i8 %75 to i1
  %77 = zext i1 %76 to i32
  %78 = icmp slt i32 %72, %77
  store i1 %78, ptr %3, align 1
  br label %79

79:                                               ; preds = %67, %61, %54, %48, %31, %23
  %80 = load i1, ptr %3, align 1
  ret i1 %80
}