; Function Attrs: mustprogress nofree nounwind willreturn memory(read, inaccessiblemem: none) uwtable
define dso_local noundef zeroext i1 @_ZltRK10cmLinkItemS1_(ptr noundef nonnull readonly align 8 captures(none) dereferenceable(104) %0, ptr noundef nonnull readonly align 8 captures(none) dereferenceable(104) %1) local_unnamed_addr #7 personality ptr @__gxx_personality_v0 {
  %3 = getelementptr inbounds nuw i8, ptr %0, i64 32
  %4 = load ptr, ptr %3, align 8, !tbaa !29
  %.not = icmp eq ptr %4, null
  %5 = getelementptr inbounds nuw i8, ptr %1, i64 32
  %6 = load ptr, ptr %5, align 8, !tbaa !29
  %.not21 = icmp eq ptr %6, null
  br i1 %.not, label %17, label %7

7:                                                ; preds = %2
  br i1 %.not21, label %39, label %8

8:                                                ; preds = %7
  %.not22 = icmp eq ptr %4, %6
  br i1 %.not22, label %11, label %9

9:                                                ; preds = %8
  %10 = icmp ult ptr %4, %6
  br label %39

11:                                               ; preds = %8
  %12 = getelementptr inbounds nuw i8, ptr %0, i64 80
  %13 = load i8, ptr %12, align 8, !tbaa !15, !range !31, !noundef !32
  %14 = getelementptr inbounds nuw i8, ptr %1, i64 80
  %15 = load i8, ptr %14, align 8, !tbaa !15, !range !31, !noundef !32
  %16 = icmp samesign ult i8 %13, %15
  br label %39

17:                                               ; preds = %2
  br i1 %.not21, label %18, label %39

18:                                               ; preds = %17
  %19 = getelementptr inbounds nuw i8, ptr %0, i64 8
  %20 = load i64, ptr %19, align 8, !tbaa !13
  %21 = getelementptr inbounds nuw i8, ptr %1, i64 8
  %22 = load i64, ptr %21, align 8, !tbaa !13
  %23 = icmp eq i64 %20, %22
  br i1 %23, label %24, label %_ZStneIcSt11char_traitsIcESaIcEEbRKNSt7__cxx1112basic_stringIT_T0_T1_EESA_.exit.thread

24:                                               ; preds = %18
  %25 = icmp eq i64 %20, 0
  br i1 %25, label %_ZStneIcSt11char_traitsIcESaIcEEbRKNSt7__cxx1112basic_stringIT_T0_T1_EESA_.exit.thread23, label %_ZStneIcSt11char_traitsIcESaIcEEbRKNSt7__cxx1112basic_stringIT_T0_T1_EESA_.exit

_ZStneIcSt11char_traitsIcESaIcEEbRKNSt7__cxx1112basic_stringIT_T0_T1_EESA_.exit: ; preds = %24
  %26 = load ptr, ptr %1, align 8, !tbaa !10
  %27 = load ptr, ptr %0, align 8, !tbaa !10
  %bcmp.i.i = tail call i32 @bcmp(ptr %27, ptr %26, i64 %20)
  %.not24 = icmp eq i32 %bcmp.i.i, 0
  br i1 %.not24, label %_ZStneIcSt11char_traitsIcESaIcEEbRKNSt7__cxx1112basic_stringIT_T0_T1_EESA_.exit.thread23, label %_ZStneIcSt11char_traitsIcESaIcEEbRKNSt7__cxx1112basic_stringIT_T0_T1_EESA_.exit.thread

_ZStneIcSt11char_traitsIcESaIcEEbRKNSt7__cxx1112basic_stringIT_T0_T1_EESA_.exit.thread: ; preds = %18, %_ZStneIcSt11char_traitsIcESaIcEEbRKNSt7__cxx1112basic_stringIT_T0_T1_EESA_.exit
  %.sroa.speculated.i.i = tail call i64 @llvm.umin.i64(i64 %22, i64 %20)
  %28 = icmp eq i64 %.sroa.speculated.i.i, 0
  br i1 %28, label %_ZNSt11char_traitsIcE7compareEPKcS2_m.exit.thread.i.i, label %_ZNSt11char_traitsIcE7compareEPKcS2_m.exit.i.i

_ZNSt11char_traitsIcE7compareEPKcS2_m.exit.i.i:   ; preds = %_ZStneIcSt11char_traitsIcESaIcEEbRKNSt7__cxx1112basic_stringIT_T0_T1_EESA_.exit.thread
  %29 = load ptr, ptr %1, align 8, !tbaa !10
  %30 = load ptr, ptr %0, align 8, !tbaa !10
  %31 = tail call i32 @memcmp(ptr noundef %30, ptr noundef %29, i64 noundef %.sroa.speculated.i.i) #17
  %.not.i.i = icmp eq i32 %31, 0
  br i1 %.not.i.i, label %_ZNSt11char_traitsIcE7compareEPKcS2_m.exit.thread.i.i, label %_ZStltIcSt11char_traitsIcESaIcEEbRKNSt7__cxx1112basic_stringIT_T0_T1_EESA_.exit

_ZNSt11char_traitsIcE7compareEPKcS2_m.exit.thread.i.i: ; preds = %_ZNSt11char_traitsIcE7compareEPKcS2_m.exit.i.i, %_ZStneIcSt11char_traitsIcESaIcEEbRKNSt7__cxx1112basic_stringIT_T0_T1_EESA_.exit.thread
  %32 = sub i64 %20, %22
  %spec.select7.i.i.i = tail call i64 @llvm.smax.i64(i64 %32, i64 -2147483648)
  %.08.i.i.i = tail call i64 @llvm.smin.i64(i64 %spec.select7.i.i.i, i64 2147483647)
  %.0.i6.i.i = trunc nsw i64 %.08.i.i.i to i32
  br label %_ZStltIcSt11char_traitsIcESaIcEEbRKNSt7__cxx1112basic_stringIT_T0_T1_EESA_.exit

_ZStltIcSt11char_traitsIcESaIcEEbRKNSt7__cxx1112basic_stringIT_T0_T1_EESA_.exit: ; preds = %_ZNSt11char_traitsIcE7compareEPKcS2_m.exit.i.i, %_ZNSt11char_traitsIcE7compareEPKcS2_m.exit.thread.i.i
  %.0.i.i = phi i32 [ %31, %_ZNSt11char_traitsIcE7compareEPKcS2_m.exit.i.i ], [ %.0.i6.i.i, %_ZNSt11char_traitsIcE7compareEPKcS2_m.exit.thread.i.i ]
  %33 = icmp slt i32 %.0.i.i, 0
  br label %39

_ZStneIcSt11char_traitsIcESaIcEEbRKNSt7__cxx1112basic_stringIT_T0_T1_EESA_.exit.thread23: ; preds = %24, %_ZStneIcSt11char_traitsIcESaIcEEbRKNSt7__cxx1112basic_stringIT_T0_T1_EESA_.exit
  %34 = getelementptr inbounds nuw i8, ptr %0, i64 80
  %35 = load i8, ptr %34, align 8, !tbaa !15, !range !31, !noundef !32
  %36 = getelementptr inbounds nuw i8, ptr %1, i64 80
  %37 = load i8, ptr %36, align 8, !tbaa !15, !range !31, !noundef !32
  %38 = icmp samesign ult i8 %35, %37
  br label %39

39:                                               ; preds = %7, %17, %_ZStneIcSt11char_traitsIcESaIcEEbRKNSt7__cxx1112basic_stringIT_T0_T1_EESA_.exit.thread23, %_ZStltIcSt11char_traitsIcESaIcEEbRKNSt7__cxx1112basic_stringIT_T0_T1_EESA_.exit, %11, %9
  %.0 = phi i1 [ %10, %9 ], [ %16, %11 ], [ %33, %_ZStltIcSt11char_traitsIcESaIcEEbRKNSt7__cxx1112basic_stringIT_T0_T1_EESA_.exit ], [ %38, %_ZStneIcSt11char_traitsIcESaIcEEbRKNSt7__cxx1112basic_stringIT_T0_T1_EESA_.exit.thread23 ], [ false, %17 ], [ true, %7 ]
  ret i1 %.0
}